target datalayout = "e-m:e-p270:32:32-p271:32:32-p272:64:64-i64:64-i128:128-f80:128-n8:16:32:64-S128"
target triple = "x86_64-pc-linux-gnu"

%struct.luaL_Reg = type { ptr, ptr }

@.str.12 = private unnamed_addr constant [8 x i8] c"_LOADED\00", align 1
@.str.13 = private unnamed_addr constant [30 x i8] c"name conflict for module '%s'\00", align 1

; Function Attrs: mustprogress nounwind uwtable
define internal noundef i32 @_ZL7libsizePK8luaL_Reg(ptr noundef %0) #1 {
  %2 = alloca ptr, align 8
  %3 = alloca i32, align 4
  store ptr %0, ptr %2, align 8
  store i32 0, ptr %3, align 4
  br label %4

4:                                                ; preds = %12, %1
  %5 = load ptr, ptr %2, align 8
  %6 = getelementptr inbounds %struct.luaL_Reg, ptr %5, i32 0, i32 0
  %7 = load ptr, ptr %6, align 8
  %8 = icmp ne ptr %7, null
  br i1 %8, label %9, label %15

9:                                                ; preds = %4
  %10 = load i32, ptr %3, align 4
  %11 = add nsw i32 %10, 1
  store i32 %11, ptr %3, align 4
  br label %12

12:                                               ; preds = %9
  %13 = load ptr, ptr %2, align 8
  %14 = getelementptr inbounds %struct.luaL_Reg, ptr %13, i32 1
  store ptr %14, ptr %2, align 8
  br label %4, !llvm.loop !8

15:                                               ; preds = %4
  %16 = load i32, ptr %3, align 4
  ret i32 %16
}

; Function Attrs: mustprogress uwtable
define dso_local void @_Z13luaL_registerP9lua_StatePKcPK8luaL_Reg(ptr noundef %0, ptr noundef %1, ptr noundef %2) #3 {
  %4 = alloca ptr, align 8
  %5 = alloca ptr, align 8
  %6 = alloca ptr, align 8
  %7 = alloca i32, align 4
  store ptr %0, ptr %4, align 8
  store ptr %1, ptr %5, align 8
  store ptr %2, ptr %6, align 8
  %8 = load ptr, ptr %5, align 8
  %9 = icmp ne ptr %8, null
  br i1 %9, label %10, label %37

10:                                               ; preds = %3
  %11 = load ptr, ptr %6, align 8
  %12 = call noundef i32 @_ZL7libsizePK8luaL_Reg(ptr noundef %11)
  store i32 %12, ptr %7, align 4
  %13 = load ptr, ptr %4, align 8
  %14 = call noundef ptr @_Z14luaL_findtableP9lua_StateiPKci(ptr noundef %13, i32 noundef -10000, ptr noundef @.str.12, i32 noundef 1)
  %15 = load ptr, ptr %4, align 8
  %16 = load ptr, ptr %5, align 8
  %17 = call noundef i32 @_Z12lua_getfieldP9lua_StateiPKc(ptr noundef %15, i32 noundef -1, ptr noundef %16)
  %18 = load ptr, ptr %4, align 8
  %19 = call noundef i32 @_Z8lua_typeP9lua_Statei(ptr noundef %18, i32 noundef -1)
  %20 = icmp eq i32 %19, 6
  br i1 %20, label %35, label %21

21:                                               ; preds = %10
  %22 = load ptr, ptr %4, align 8
  call void @_Z10lua_settopP9lua_Statei(ptr noundef %22, i32 noundef -2)
  %23 = load ptr, ptr %4, align 8
  %24 = load ptr, ptr %5, align 8
  %25 = load i32, ptr %7, align 4
  %26 = call noundef ptr @_Z14luaL_findtableP9lua_StateiPKci(ptr noundef %23, i32 noundef -10002, ptr noundef %24, i32 noundef %25)
  %27 = icmp ne ptr %26, null
  br i1 %27, label %28, label %31

28:                                               ; preds = %21
  %29 = load ptr, ptr %4, align 8
  %30 = load ptr, ptr %5, align 8
  call void (ptr, ptr, ...) @_Z11luaL_errorLP9lua_StatePKcz(ptr noundef %29, ptr noundef @.str.13, ptr noundef %30) #8
  unreachable

31:                                               ; preds = %21
  %32 = load ptr, ptr %4, align 8
  call void @_Z13lua_pushvalueP9lua_Statei(ptr noundef %32, i32 noundef -1)
  %33 = load ptr, ptr %4, align 8
  %34 = load ptr, ptr %5, align 8
  call void @_Z12lua_setfieldP9lua_StateiPKc(ptr noundef %33, i32 noundef -3, ptr noundef %34)
  br label %35

35:                                               ; preds = %31, %10
  %36 = load ptr, ptr %4, align 8
  call void @_Z10lua_removeP9lua_Statei(ptr noundef %36, i32 noundef -2)
  br label %37

37:                                               ; preds = %35, %3
  br label %38

38:                                               ; preds = %55, %37
  %39 = load ptr, ptr %6, align 8
  %40 = getelementptr inbounds %struct.luaL_Reg, ptr %39, i32 0, i32 0
  %41 = load ptr, ptr %40, align 8
  %42 = icmp ne ptr %41, null
  br i1 %42, label %43, label %58

43:                                               ; preds = %38
  %44 = load ptr, ptr %4, align 8
  %45 = load ptr, ptr %6, align 8
  %46 = getelementptr inbounds %struct.luaL_Reg, ptr %45, i32 0, i32 1
  %47 = load ptr, ptr %46, align 8
  %48 = load ptr, ptr %6, align 8
  %49 = getelementptr inbounds %struct.luaL_Reg, ptr %48, i32 0, i32 0
  %50 = load ptr, ptr %49, align 8
  call void @_Z17lua_pushcclosurekP9lua_StatePFiS0_EPKciPFiS0_iE(ptr noundef %44, ptr noundef %47, ptr noundef %50, i32 noundef 0, ptr noundef null)
  %51 = load ptr, ptr %4, align 8
  %52 = load ptr, ptr %6, align 8
  %53 = getelementptr inbounds %struct.luaL_Reg, ptr %52, i32 0, i32 0
  %54 = load ptr, ptr %53, align 8
  call void @_Z12lua_setfieldP9lua_StateiPKc(ptr noundef %51, i32 noundef -2, ptr noundef %54)
  br label %55

55:                                               ; preds = %43
  %56 = load ptr, ptr %6, align 8
  %57 = getelementptr inbounds %struct.luaL_Reg, ptr %56, i32 1
  store ptr %57, ptr %6, align 8
  br label %38, !llvm.loop !7

58:                                               ; preds = %38
  ret void
}