; Function Attrs: mustprogress uwtable
define dso_local void @_Z13luaL_registerP9lua_StatePKcPK8luaL_Reg(ptr noundef %0, ptr noundef %1, ptr nocapture noundef readonly %2) local_unnamed_addr #2 {
  %.not = icmp eq ptr %1, null
  br i1 %.not, label %18, label %4

4:                                                ; preds = %3
  %5 = load ptr, ptr %2, align 8
  %.not4.i = icmp eq ptr %5, null
  br i1 %.not4.i, label %_ZL7libsizePK8luaL_Reg.exit, label %.lr.ph.i

.lr.ph.i:                                         ; preds = %4, %.lr.ph.i
  %.06.i = phi i32 [ %6, %.lr.ph.i ], [ 0, %4 ]
  %.035.i = phi ptr [ %7, %.lr.ph.i ], [ %2, %4 ]
  %6 = add nuw nsw i32 %.06.i, 1
  %7 = getelementptr inbounds i8, ptr %.035.i, i64 16
  %8 = load ptr, ptr %7, align 8
  %.not.i = icmp eq ptr %8, null
  br i1 %.not.i, label %_ZL7libsizePK8luaL_Reg.exit, label %.lr.ph.i, !llvm.loop !7

_ZL7libsizePK8luaL_Reg.exit:                      ; preds = %.lr.ph.i, %4
  %.0.lcssa.i = phi i32 [ 0, %4 ], [ %6, %.lr.ph.i ]
  %9 = tail call noundef ptr @_Z14luaL_findtableP9lua_StateiPKci(ptr noundef %0, i32 noundef -10000, ptr noundef nonnull @.str.12, i32 noundef 1)
  %10 = tail call noundef i32 @_Z12lua_getfieldP9lua_StateiPKc(ptr noundef %0, i32 noundef -1, ptr noundef nonnull %1)
  %11 = tail call noundef i32 @_Z8lua_typeP9lua_Statei(ptr noundef %0, i32 noundef -1)
  %12 = icmp eq i32 %11, 6
  br i1 %12, label %17, label %13

13:                                               ; preds = %_ZL7libsizePK8luaL_Reg.exit
  tail call void @_Z10lua_settopP9lua_Statei(ptr noundef %0, i32 noundef -2)
  %14 = tail call noundef ptr @_Z14luaL_findtableP9lua_StateiPKci(ptr noundef %0, i32 noundef -10002, ptr noundef nonnull %1, i32 noundef %.0.lcssa.i)
  %.not24 = icmp eq ptr %14, null
  br i1 %.not24, label %16, label %15

15:                                               ; preds = %13
  tail call void (ptr, ptr, ...) @_Z11luaL_errorLP9lua_StatePKcz(ptr noundef %0, ptr noundef nonnull @.str.13, ptr noundef nonnull %1) #11
  unreachable

16:                                               ; preds = %13
  tail call void @_Z13lua_pushvalueP9lua_Statei(ptr noundef %0, i32 noundef -1)
  tail call void @_Z12lua_setfieldP9lua_StateiPKc(ptr noundef %0, i32 noundef -3, ptr noundef nonnull %1)
  br label %17

17:                                               ; preds = %16, %_ZL7libsizePK8luaL_Reg.exit
  tail call void @_Z10lua_removeP9lua_Statei(ptr noundef %0, i32 noundef -2)
  br label %18

18:                                               ; preds = %17, %3
  %19 = load ptr, ptr %2, align 8
  %.not2526 = icmp eq ptr %19, null
  br i1 %.not2526, label %._crit_edge, label %.lr.ph

.lr.ph:                                           ; preds = %18, %.lr.ph
  %20 = phi ptr [ %25, %.lr.ph ], [ %19, %18 ]
  %.027 = phi ptr [ %24, %.lr.ph ], [ %2, %18 ]
  %21 = getelementptr inbounds i8, ptr %.027, i64 8
  %22 = load ptr, ptr %21, align 8
  tail call void @_Z17lua_pushcclosurekP9lua_StatePFiS0_EPKciPFiS0_iE(ptr noundef %0, ptr noundef %22, ptr noundef nonnull %20, i32 noundef 0, ptr noundef null)
  %23 = load ptr, ptr %.027, align 8
  tail call void @_Z12lua_setfieldP9lua_StateiPKc(ptr noundef %0, i32 noundef -2, ptr noundef %23)
  %24 = getelementptr inbounds i8, ptr %.027, i64 16
  %25 = load ptr, ptr %24, align 8
  %.not25 = icmp eq ptr %25, null
  br i1 %.not25, label %._crit_edge, label %.lr.ph, !llvm.loop !8

._crit_edge:                                      ; preds = %.lr.ph, %18
  ret void
}